target datalayout = "e-m:e-p270:32:32-p271:32:32-p272:64:64-i64:64-i128:128-f80:128-n8:16:32:64-S128"
target triple = "x86_64-pc-linux-gnu"

%struct._lv_table_t = type { %struct._lv_obj_t, i32, i32, ptr, ptr, ptr, i32, i32 }
%struct._lv_obj_t = type { ptr, ptr, ptr, ptr, ptr, %struct.lv_area_t, i32, i16, i16 }
%struct.lv_area_t = type { i32, i32, i32, i32 }

; Function Attrs: nounwind uwtable
define void @lv_table_set_selected_cell(ptr noundef %0, i16 noundef zeroext %1, i16 noundef zeroext %2) #0 {
  %4 = alloca ptr, align 8
  %5 = alloca i16, align 2
  %6 = alloca i16, align 2
  %7 = alloca ptr, align 8
  %8 = alloca i32, align 4
  store ptr %0, ptr %4, align 8, !tbaa !8
  store i16 %1, ptr %5, align 2, !tbaa !61
  store i16 %2, ptr %6, align 2, !tbaa !61
  br label %9

9:                                                ; preds = %3
  %10 = load ptr, ptr %4, align 8, !tbaa !8
  %11 = icmp ne ptr %10, null
  br i1 %11, label %16, label %12

12:                                               ; preds = %9
  br label %13

13:                                               ; preds = %12
  br label %14

14:                                               ; preds = %13
  br label %15

15:                                               ; preds = %14, %15
  br label %15

16:                                               ; preds = %9
  br label %17

17:                                               ; preds = %16
  call void @llvm.lifetime.start.p0(i64 8, ptr %7) #6
  %18 = load ptr, ptr %4, align 8, !tbaa !8
  store ptr %18, ptr %7, align 8, !tbaa !10
  %19 = load ptr, ptr %7, align 8, !tbaa !10
  %20 = getelementptr inbounds nuw %struct._lv_table_t, ptr %19, i32 0, i32 1
  %21 = load i32, ptr %20, align 8, !tbaa !12
  %22 = icmp eq i32 %21, 0
  br i1 %22, label %28, label %23

23:                                               ; preds = %17
  %24 = load ptr, ptr %7, align 8, !tbaa !10
  %25 = getelementptr inbounds nuw %struct._lv_table_t, ptr %24, i32 0, i32 2
  %26 = load i32, ptr %25, align 4, !tbaa !22
  %27 = icmp eq i32 %26, 0
  br i1 %27, label %28, label %29

28:                                               ; preds = %23, %17
  store i32 1, ptr %8, align 4
  br label %85

29:                                               ; preds = %23
  %30 = load ptr, ptr %7, align 8, !tbaa !10
  %31 = getelementptr inbounds nuw %struct._lv_table_t, ptr %30, i32 0, i32 6
  %32 = load i32, ptr %31, align 8, !tbaa !30
  %33 = load i16, ptr %6, align 2, !tbaa !61
  %34 = zext i16 %33 to i32
  %35 = icmp ne i32 %32, %34
  br i1 %35, label %43, label %36

36:                                               ; preds = %29
  %37 = load ptr, ptr %7, align 8, !tbaa !10
  %38 = getelementptr inbounds nuw %struct._lv_table_t, ptr %37, i32 0, i32 7
  %39 = load i32, ptr %38, align 4, !tbaa !29
  %40 = load i16, ptr %5, align 2, !tbaa !61
  %41 = zext i16 %40 to i32
  %42 = icmp ne i32 %39, %41
  br i1 %42, label %43, label %84

43:                                               ; preds = %36, %29
  %44 = load i16, ptr %6, align 2, !tbaa !61
  %45 = zext i16 %44 to i32
  %46 = load ptr, ptr %7, align 8, !tbaa !10
  %47 = getelementptr inbounds nuw %struct._lv_table_t, ptr %46, i32 0, i32 1
  %48 = load i32, ptr %47, align 8, !tbaa !12
  %49 = icmp uge i32 %45, %48
  br i1 %49, label %50, label %55

50:                                               ; preds = %43
  %51 = load ptr, ptr %7, align 8, !tbaa !10
  %52 = getelementptr inbounds nuw %struct._lv_table_t, ptr %51, i32 0, i32 1
  %53 = load i32, ptr %52, align 8, !tbaa !12
  %54 = sub i32 %53, 1
  br label %58

55:                                               ; preds = %43
  %56 = load i16, ptr %6, align 2, !tbaa !61
  %57 = zext i16 %56 to i32
  br label %58

58:                                               ; preds = %55, %50
  %59 = phi i32 [ %54, %50 ], [ %57, %55 ]
  %60 = load ptr, ptr %7, align 8, !tbaa !10
  %61 = getelementptr inbounds nuw %struct._lv_table_t, ptr %60, i32 0, i32 6
  store i32 %59, ptr %61, align 8, !tbaa !30
  %62 = load i16, ptr %5, align 2, !tbaa !61
  %63 = zext i16 %62 to i32
  %64 = load ptr, ptr %7, align 8, !tbaa !10
  %65 = getelementptr inbounds nuw %struct._lv_table_t, ptr %64, i32 0, i32 2
  %66 = load i32, ptr %65, align 4, !tbaa !22
  %67 = icmp uge i32 %63, %66
  br i1 %67, label %68, label %73

68:                                               ; preds = %58
  %69 = load ptr, ptr %7, align 8, !tbaa !10
  %70 = getelementptr inbounds nuw %struct._lv_table_t, ptr %69, i32 0, i32 2
  %71 = load i32, ptr %70, align 4, !tbaa !22
  %72 = sub i32 %71, 1
  br label %76

73:                                               ; preds = %58
  %74 = load i16, ptr %5, align 2, !tbaa !61
  %75 = zext i16 %74 to i32
  br label %76

76:                                               ; preds = %73, %68
  %77 = phi i32 [ %72, %68 ], [ %75, %73 ]
  %78 = load ptr, ptr %7, align 8, !tbaa !10
  %79 = getelementptr inbounds nuw %struct._lv_table_t, ptr %78, i32 0, i32 7
  store i32 %77, ptr %79, align 4, !tbaa !29
  %80 = load ptr, ptr %4, align 8, !tbaa !8
  call void @lv_obj_invalidate(ptr noundef %80)
  %81 = load ptr, ptr %4, align 8, !tbaa !8
  call void @scroll_to_selected_cell(ptr noundef %81)
  %82 = load ptr, ptr %4, align 8, !tbaa !8
  %83 = call i32 @lv_obj_send_event(ptr noundef %82, i32 noundef 35, ptr noundef null)
  br label %84

84:                                               ; preds = %76, %36
  store i32 0, ptr %8, align 4
  br label %85

85:                                               ; preds = %84, %28
  call void @llvm.lifetime.end.p0(i64 8, ptr %7) #6
  %86 = load i32, ptr %8, align 4
  switch i32 %86, label %88 [
    i32 0, label %87
    i32 1, label %87
  ]

87:                                               ; preds = %85, %85
  ret void

88:                                               ; preds = %85
  unreachable
}