; Function Attrs: nounwind uwtable
define void @lv_table_set_selected_cell(ptr noundef %0, i16 noundef zeroext %1, i16 noundef zeroext %2) local_unnamed_addr #0 {
  %.not = icmp eq ptr %0, null
  br i1 %.not, label %.preheader, label %4

.preheader:                                       ; preds = %3, %.preheader
  br label %.preheader

4:                                                ; preds = %3
  %5 = getelementptr inbounds nuw i8, ptr %0, i64 64
  %6 = load i32, ptr %5, align 8, !tbaa !3
  %7 = icmp eq i32 %6, 0
  br i1 %7, label %27, label %8

8:                                                ; preds = %4
  %9 = getelementptr inbounds nuw i8, ptr %0, i64 68
  %10 = load i32, ptr %9, align 4, !tbaa !18
  %11 = icmp eq i32 %10, 0
  br i1 %11, label %27, label %12

12:                                               ; preds = %8
  %13 = getelementptr inbounds nuw i8, ptr %0, i64 96
  %14 = load i32, ptr %13, align 8, !tbaa !26
  %15 = zext i16 %2 to i32
  %.not24 = icmp eq i32 %14, %15
  br i1 %.not24, label %16, label %._crit_edge

._crit_edge:                                      ; preds = %12
  %.pre = zext i16 %1 to i32
  br label %20

16:                                               ; preds = %12
  %17 = getelementptr inbounds nuw i8, ptr %0, i64 100
  %18 = load i32, ptr %17, align 4, !tbaa !25
  %19 = zext i16 %1 to i32
  %.not25 = icmp eq i32 %18, %19
  br i1 %.not25, label %27, label %20

20:                                               ; preds = %._crit_edge, %16
  %.pre-phi = phi i32 [ %.pre, %._crit_edge ], [ %19, %16 ]
  %.not26 = icmp ugt i32 %6, %15
  %21 = add nsw i32 %6, -1
  %22 = select i1 %.not26, i32 %15, i32 %21
  store i32 %22, ptr %13, align 8, !tbaa !26
  %.not27 = icmp ugt i32 %10, %.pre-phi
  %23 = add nsw i32 %10, -1
  %24 = select i1 %.not27, i32 %.pre-phi, i32 %23
  %25 = getelementptr inbounds nuw i8, ptr %0, i64 100
  store i32 %24, ptr %25, align 4, !tbaa !25
  tail call void @lv_obj_invalidate(ptr noundef nonnull %0) #9
  tail call fastcc void @scroll_to_selected_cell(ptr noundef nonnull %0)
  %26 = tail call i32 @lv_obj_send_event(ptr noundef nonnull %0, i32 noundef 35, ptr noundef null) #9
  br label %27

27:                                               ; preds = %16, %20, %4, %8
  ret void
}